target datalayout = "e-m:e-p270:32:32-p271:32:32-p272:64:64-i64:64-i128:128-f80:128-n8:16:32:64-S128"
target triple = "x86_64-pc-linux-gnu"

%"class.cv::dynafu::Quaternion" = type { %"class.cv::Vec" }
%"class.cv::Vec" = type { %"class.cv::Matx" }
%"class.cv::Matx" = type { [4 x float] }
%"struct.cv::Matx_ScaleOp" = type { i8 }
%"class.cv::dynafu::DualQuaternion" = type { %"class.cv::dynafu::Quaternion", %"class.cv::dynafu::Quaternion" }

@_ZN2cv6dynafu10QuaternionC1Effff = hidden unnamed_addr alias void (ptr, float, float, float, float), ptr @_ZN2cv6dynafu10QuaternionC2Effff
@_ZN2cv6dynafu14DualQuaternionC1ERNS0_10QuaternionES3_ = hidden unnamed_addr alias void (ptr, ptr, ptr), ptr @_ZN2cv6dynafu14DualQuaternionC2ERNS0_10QuaternionES3_

; Function Attrs: inlinehint mustprogress nounwind uwtable
define internal noundef float @_ZN2cvL13saturate_castIfEET_f(float noundef %0) #3 {
  %2 = alloca float, align 4
  store float %0, ptr %2, align 4, !tbaa !10
  %3 = load float, ptr %2, align 4, !tbaa !10
  ret float %3
}

; Function Attrs: inlinehint mustprogress nounwind uwtable
define linkonce_odr hidden void @_ZN2cv4MatxIfLi4ELi1EEC2IfEERKS1_T_NS_12Matx_ScaleOpE(ptr noundef nonnull align 4 dereferenceable(16) %0, ptr noundef nonnull align 4 dereferenceable(16) %1, float noundef %2, ptr noundef %3) unnamed_addr #3 comdat align 2 {
  %5 = alloca ptr, align 8
  %6 = alloca ptr, align 8
  %7 = alloca float, align 4
  %8 = alloca ptr, align 8
  %9 = alloca i32, align 4
  store ptr %0, ptr %5, align 8, !tbaa !55
  store ptr %1, ptr %6, align 8, !tbaa !55
  store float %2, ptr %7, align 4, !tbaa !10
  store ptr %3, ptr %8, align 8, !tbaa !71
  %10 = load ptr, ptr %5, align 8
  call void @llvm.lifetime.start.p0(i64 4, ptr %9) #13
  store i32 0, ptr %9, align 4, !tbaa !16
  br label %11

11:                                               ; preds = %29, %4
  %12 = load i32, ptr %9, align 4, !tbaa !16
  %13 = icmp slt i32 %12, 4
  br i1 %13, label %15, label %14

14:                                               ; preds = %11
  call void @llvm.lifetime.end.p0(i64 4, ptr %9) #13
  br label %32

15:                                               ; preds = %11
  %16 = load ptr, ptr %6, align 8, !tbaa !55
  %17 = getelementptr inbounds nuw %"class.cv::Matx", ptr %16, i32 0, i32 0
  %18 = load i32, ptr %9, align 4, !tbaa !16
  %19 = sext i32 %18 to i64
  %20 = getelementptr inbounds [4 x float], ptr %17, i64 0, i64 %19
  %21 = load float, ptr %20, align 4, !tbaa !10
  %22 = load float, ptr %7, align 4, !tbaa !10
  %23 = fmul float %21, %22
  %24 = call noundef float @_ZN2cvL13saturate_castIfEET_f(float noundef %23)
  %25 = getelementptr inbounds nuw %"class.cv::Matx", ptr %10, i32 0, i32 0
  %26 = load i32, ptr %9, align 4, !tbaa !16
  %27 = sext i32 %26 to i64
  %28 = getelementptr inbounds [4 x float], ptr %25, i64 0, i64 %27
  store float %24, ptr %28, align 4, !tbaa !10
  br label %29

29:                                               ; preds = %15
  %30 = load i32, ptr %9, align 4, !tbaa !16
  %31 = add nsw i32 %30, 1
  store i32 %31, ptr %9, align 4, !tbaa !16
  br label %11, !llvm.loop !73

32:                                               ; preds = %14
  ret void
}

; Function Attrs: mustprogress nounwind uwtable
define linkonce_odr hidden void @_ZN2cv12Matx_ScaleOpC2ERKS0_(ptr noundef nonnull align 1 dereferenceable(1) %0, ptr noundef nonnull align 1 dereferenceable(1) %1) unnamed_addr #6 comdat align 2 {
  %3 = alloca ptr, align 8
  %4 = alloca ptr, align 8
  store ptr %0, ptr %3, align 8, !tbaa !71
  store ptr %1, ptr %4, align 8, !tbaa !71
  ret void
}

; Function Attrs: inlinehint mustprogress uwtable
define linkonce_odr hidden void @_ZN2cv3VecIfLi4EEC2IfEERKNS_4MatxIfLi4ELi1EEET_NS_12Matx_ScaleOpE(ptr noundef nonnull align 4 dereferenceable(16) %0, ptr noundef nonnull align 4 dereferenceable(16) %1, float noundef %2, ptr noundef %3) unnamed_addr #1 comdat align 2 {
  %5 = alloca ptr, align 8
  %6 = alloca ptr, align 8
  %7 = alloca float, align 4
  %8 = alloca ptr, align 8
  %9 = alloca %"struct.cv::Matx_ScaleOp", align 1
  store ptr %0, ptr %5, align 8, !tbaa !8
  store ptr %1, ptr %6, align 8, !tbaa !55
  store float %2, ptr %7, align 4, !tbaa !10
  store ptr %3, ptr %8, align 8, !tbaa !71
  %10 = load ptr, ptr %5, align 8
  %11 = load ptr, ptr %6, align 8, !tbaa !55
  %12 = load float, ptr %7, align 4, !tbaa !10
  call void @_ZN2cv12Matx_ScaleOpC2ERKS0_(ptr noundef nonnull align 1 dereferenceable(1) %9, ptr noundef nonnull align 1 dereferenceable(1) %3)
  call void @_ZN2cv4MatxIfLi4ELi1EEC2IfEERKS1_T_NS_12Matx_ScaleOpE(ptr noundef nonnull align 4 dereferenceable(16) %10, ptr noundef nonnull align 4 dereferenceable(16) %11, float noundef %12, ptr noundef %9)
  ret void
}

; Function Attrs: mustprogress nounwind uwtable
define linkonce_odr hidden void @_ZN2cv12Matx_ScaleOpC2Ev(ptr noundef nonnull align 1 dereferenceable(1) %0) unnamed_addr #6 comdat align 2 {
  %2 = alloca ptr, align 8
  store ptr %0, ptr %2, align 8, !tbaa !71
  ret void
}

; Function Attrs: inlinehint mustprogress nounwind uwtable
define linkonce_odr hidden noundef nonnull align 4 dereferenceable(4) ptr @_ZN2cv3VecIfLi4EEixEi(ptr noundef nonnull align 4 dereferenceable(16) %0, i32 noundef %1) #3 comdat align 2 {
  %3 = alloca ptr, align 8
  %4 = alloca i32, align 4
  store ptr %0, ptr %3, align 8, !tbaa !8
  store i32 %1, ptr %4, align 4, !tbaa !16
  %5 = load ptr, ptr %3, align 8
  %6 = getelementptr inbounds nuw %"class.cv::Matx", ptr %5, i32 0, i32 0
  %7 = load i32, ptr %4, align 4, !tbaa !16
  %8 = sext i32 %7 to i64
  %9 = getelementptr inbounds [4 x float], ptr %6, i64 0, i64 %8
  ret ptr %9
}

; Function Attrs: inlinehint mustprogress uwtable
define internal void @_ZN2cvmlIfLi4EEENS_3VecIT_XT0_EEEfRKS3_(ptr dead_on_unwind noalias writable sret(%"class.cv::Vec") align 4 %0, float noundef %1, ptr noundef nonnull align 4 dereferenceable(16) %2) #1 {
  %4 = alloca ptr, align 8
  %5 = alloca float, align 4
  %6 = alloca ptr, align 8
  %7 = alloca %"struct.cv::Matx_ScaleOp", align 1
  store ptr %0, ptr %4, align 8
  store float %1, ptr %5, align 4, !tbaa !10
  store ptr %2, ptr %6, align 8, !tbaa !8
  %8 = load ptr, ptr %6, align 8, !tbaa !8
  %9 = load float, ptr %5, align 4, !tbaa !10
  call void @_ZN2cv12Matx_ScaleOpC2Ev(ptr noundef nonnull align 1 dereferenceable(1) %7)
  call void @_ZN2cv3VecIfLi4EEC2IfEERKNS_4MatxIfLi4ELi1EEET_NS_12Matx_ScaleOpE(ptr noundef nonnull align 4 dereferenceable(16) %0, ptr noundef nonnull align 4 dereferenceable(16) %8, float noundef %9, ptr noundef %7)
  ret void
}

; Function Attrs: mustprogress uwtable
define hidden void @_ZN2cv6dynafumlEfRKNS0_10QuaternionE(ptr dead_on_unwind noalias writable sret(%"class.cv::dynafu::Quaternion") align 4 %0, float noundef %1, ptr noundef nonnull align 4 dereferenceable(16) %2) #0 {
  %4 = alloca ptr, align 8
  %5 = alloca float, align 4
  %6 = alloca ptr, align 8
  %7 = alloca %"class.cv::Vec", align 4
  store ptr %0, ptr %4, align 8
  store float %1, ptr %5, align 4, !tbaa !10
  store ptr %2, ptr %6, align 8, !tbaa !3
  call void @llvm.lifetime.start.p0(i64 16, ptr %7) #13
  %8 = load float, ptr %5, align 4, !tbaa !10
  %9 = load ptr, ptr %6, align 8, !tbaa !3
  %10 = getelementptr inbounds nuw %"class.cv::dynafu::Quaternion", ptr %9, i32 0, i32 0
  call void @_ZN2cvmlIfLi4EEENS_3VecIT_XT0_EEEfRKS3_(ptr dead_on_unwind writable sret(%"class.cv::Vec") align 4 %7, float noundef %8, ptr noundef nonnull align 4 dereferenceable(16) %10)
  %11 = call noundef nonnull align 4 dereferenceable(4) ptr @_ZN2cv3VecIfLi4EEixEi(ptr noundef nonnull align 4 dereferenceable(16) %7, i32 noundef 0)
  %12 = load float, ptr %11, align 4, !tbaa !10
  %13 = call noundef nonnull align 4 dereferenceable(4) ptr @_ZN2cv3VecIfLi4EEixEi(ptr noundef nonnull align 4 dereferenceable(16) %7, i32 noundef 1)
  %14 = load float, ptr %13, align 4, !tbaa !10
  %15 = call noundef nonnull align 4 dereferenceable(4) ptr @_ZN2cv3VecIfLi4EEixEi(ptr noundef nonnull align 4 dereferenceable(16) %7, i32 noundef 2)
  %16 = load float, ptr %15, align 4, !tbaa !10
  %17 = call noundef nonnull align 4 dereferenceable(4) ptr @_ZN2cv3VecIfLi4EEixEi(ptr noundef nonnull align 4 dereferenceable(16) %7, i32 noundef 3)
  %18 = load float, ptr %17, align 4, !tbaa !10
  call void @_ZN2cv6dynafu10QuaternionC1Effff(ptr noundef nonnull align 4 dereferenceable(16) %0, float noundef %12, float noundef %14, float noundef %16, float noundef %18)
  call void @llvm.lifetime.end.p0(i64 16, ptr %7) #13
  ret void
}

; Function Attrs: mustprogress uwtable
define hidden void @_ZN2cv6dynafumlEfRKNS0_14DualQuaternionE(ptr dead_on_unwind noalias writable sret(%"class.cv::dynafu::DualQuaternion") align 4 %0, float noundef %1, ptr noundef nonnull align 4 dereferenceable(32) %2) #0 {
  %4 = alloca ptr, align 8
  %5 = alloca float, align 4
  %6 = alloca ptr, align 8
  %7 = alloca %"class.cv::dynafu::Quaternion", align 4
  %8 = alloca %"class.cv::dynafu::Quaternion", align 4
  store ptr %0, ptr %4, align 8
  store float %1, ptr %5, align 4, !tbaa !10
  store ptr %2, ptr %6, align 8, !tbaa !28
  call void @llvm.lifetime.start.p0(i64 16, ptr %7) #13
  %9 = load float, ptr %5, align 4, !tbaa !10
  %10 = load ptr, ptr %6, align 8, !tbaa !28
  %11 = getelementptr inbounds nuw %"class.cv::dynafu::DualQuaternion", ptr %10, i32 0, i32 0
  call void @_ZN2cv6dynafumlEfRKNS0_10QuaternionE(ptr dead_on_unwind writable sret(%"class.cv::dynafu::Quaternion") align 4 %7, float noundef %9, ptr noundef nonnull align 4 dereferenceable(16) %11)
  call void @llvm.lifetime.start.p0(i64 16, ptr %8) #13
  %12 = load float, ptr %5, align 4, !tbaa !10
  %13 = load ptr, ptr %6, align 8, !tbaa !28
  %14 = getelementptr inbounds nuw %"class.cv::dynafu::DualQuaternion", ptr %13, i32 0, i32 1
  call void @_ZN2cv6dynafumlEfRKNS0_10QuaternionE(ptr dead_on_unwind writable sret(%"class.cv::dynafu::Quaternion") align 4 %8, float noundef %12, ptr noundef nonnull align 4 dereferenceable(16) %14)
  call void @_ZN2cv6dynafu14DualQuaternionC1ERNS0_10QuaternionES3_(ptr noundef nonnull align 4 dereferenceable(32) %0, ptr noundef nonnull align 4 dereferenceable(16) %7, ptr noundef nonnull align 4 dereferenceable(16) %8)
  call void @llvm.lifetime.end.p0(i64 16, ptr %8) #13
  call void @llvm.lifetime.end.p0(i64 16, ptr %7) #13
  ret void
}