; Function Attrs: mustprogress nofree norecurse nosync nounwind memory(argmem: readwrite, inaccessiblemem: readwrite) uwtable
define hidden void @_ZN2cv6dynafumlEfRKNS0_14DualQuaternionE(ptr dead_on_unwind noalias writable writeonly sret(%"class.cv::dynafu::DualQuaternion") align 4 captures(none) %0, float noundef %1, ptr noundef nonnull readonly align 4 captures(none) dereferenceable(32) %2) local_unnamed_addr #6 {
  %4 = alloca %"class.cv::Vec", align 4
  %5 = alloca %"class.cv::Vec", align 4
  call void @llvm.lifetime.start.p0(i64 16, ptr nonnull %5) #18, !noalias !36
  tail call void @llvm.experimental.noalias.scope.decl(metadata !39)
  br label %6

6:                                                ; preds = %6, %3
  %indvars.iv.i.i.i.i = phi i64 [ 0, %3 ], [ %indvars.iv.next.i.i.i.i, %6 ]
  %7 = getelementptr inbounds nuw [4 x float], ptr %2, i64 0, i64 %indvars.iv.i.i.i.i
  %8 = load float, ptr %7, align 4, !tbaa !3, !noalias !42
  %9 = fmul float %1, %8
  %10 = getelementptr inbounds nuw [4 x float], ptr %5, i64 0, i64 %indvars.iv.i.i.i.i
  store float %9, ptr %10, align 4, !tbaa !3, !alias.scope !39, !noalias !36
  %indvars.iv.next.i.i.i.i = add nuw nsw i64 %indvars.iv.i.i.i.i, 1
  %exitcond.not.i.i.i.i = icmp eq i64 %indvars.iv.next.i.i.i.i, 4
  br i1 %exitcond.not.i.i.i.i, label %_ZN2cv6dynafumlEfRKNS0_10QuaternionE.exit, label %6, !llvm.loop !14

_ZN2cv6dynafumlEfRKNS0_10QuaternionE.exit:        ; preds = %6
  %11 = load float, ptr %5, align 4, !tbaa !3, !noalias !36
  %12 = getelementptr inbounds nuw i8, ptr %5, i64 4
  %13 = load float, ptr %12, align 4, !tbaa !3, !noalias !36
  %14 = getelementptr inbounds nuw i8, ptr %5, i64 8
  %15 = load float, ptr %14, align 4, !tbaa !3, !noalias !36
  %16 = getelementptr inbounds nuw i8, ptr %5, i64 12
  %17 = load float, ptr %16, align 4, !tbaa !3, !noalias !36
  call void @llvm.lifetime.end.p0(i64 16, ptr nonnull %5) #18, !noalias !36
  %18 = getelementptr inbounds nuw i8, ptr %2, i64 16
  call void @llvm.lifetime.start.p0(i64 16, ptr nonnull %4) #18, !noalias !43
  tail call void @llvm.experimental.noalias.scope.decl(metadata !46)
  br label %19

19:                                               ; preds = %19, %_ZN2cv6dynafumlEfRKNS0_10QuaternionE.exit
  %indvars.iv.i.i.i.i4 = phi i64 [ 0, %_ZN2cv6dynafumlEfRKNS0_10QuaternionE.exit ], [ %indvars.iv.next.i.i.i.i5, %19 ]
  %20 = getelementptr inbounds nuw [4 x float], ptr %18, i64 0, i64 %indvars.iv.i.i.i.i4
  %21 = load float, ptr %20, align 4, !tbaa !3, !noalias !49
  %22 = fmul float %1, %21
  %23 = getelementptr inbounds nuw [4 x float], ptr %4, i64 0, i64 %indvars.iv.i.i.i.i4
  store float %22, ptr %23, align 4, !tbaa !3, !alias.scope !46, !noalias !43
  %indvars.iv.next.i.i.i.i5 = add nuw nsw i64 %indvars.iv.i.i.i.i4, 1
  %exitcond.not.i.i.i.i6 = icmp eq i64 %indvars.iv.next.i.i.i.i5, 4
  br i1 %exitcond.not.i.i.i.i6, label %_ZN2cv6dynafumlEfRKNS0_10QuaternionE.exit7, label %19, !llvm.loop !14

_ZN2cv6dynafumlEfRKNS0_10QuaternionE.exit7:       ; preds = %19
  %24 = load float, ptr %4, align 4, !tbaa !3, !noalias !43
  %25 = getelementptr inbounds nuw i8, ptr %4, i64 4
  %26 = load float, ptr %25, align 4, !tbaa !3, !noalias !43
  %27 = getelementptr inbounds nuw i8, ptr %4, i64 8
  %28 = load float, ptr %27, align 4, !tbaa !3, !noalias !43
  %29 = getelementptr inbounds nuw i8, ptr %4, i64 12
  %30 = load float, ptr %29, align 4, !tbaa !3, !noalias !43
  call void @llvm.lifetime.end.p0(i64 16, ptr nonnull %4) #18, !noalias !43
  store float %11, ptr %0, align 4, !tbaa !3
  %.sroa.412.0..sroa_idx = getelementptr inbounds nuw i8, ptr %0, i64 4
  store float %13, ptr %.sroa.412.0..sroa_idx, align 4, !tbaa !3
  %.sroa.513.0..sroa_idx = getelementptr inbounds nuw i8, ptr %0, i64 8
  store float %15, ptr %.sroa.513.0..sroa_idx, align 4, !tbaa !3
  %.sroa.614.0..sroa_idx = getelementptr inbounds nuw i8, ptr %0, i64 12
  store float %17, ptr %.sroa.614.0..sroa_idx, align 4, !tbaa !3
  %31 = getelementptr inbounds nuw i8, ptr %0, i64 16
  store float %24, ptr %31, align 4, !tbaa !3
  %.sroa.4.0..sroa_idx = getelementptr inbounds nuw i8, ptr %0, i64 20
  store float %26, ptr %.sroa.4.0..sroa_idx, align 4, !tbaa !3
  %.sroa.5.0..sroa_idx = getelementptr inbounds nuw i8, ptr %0, i64 24
  store float %28, ptr %.sroa.5.0..sroa_idx, align 4, !tbaa !3
  %.sroa.6.0..sroa_idx = getelementptr inbounds nuw i8, ptr %0, i64 28
  store float %30, ptr %.sroa.6.0..sroa_idx, align 4, !tbaa !3
  ret void
}